; Function Attrs: mustprogress nounwind uwtable
define hidden void @_ZN9Assembler4movwE7Addressi(ptr nocapture noundef nonnull readonly align 8 dereferenceable(40) %0, ptr noundef %1, i32 noundef %2) local_unnamed_addr #0 align 2 {
  %4 = alloca %class.Address, align 8
  %5 = alloca %class.Address, align 8
  %6 = getelementptr inbounds i8, ptr %0, i64 8
  %7 = load ptr, ptr %6, align 8
  %8 = getelementptr inbounds i8, ptr %7, i64 16
  %9 = load ptr, ptr %8, align 8
  %10 = getelementptr inbounds i8, ptr %7, i64 8
  store ptr %9, ptr %10, align 8
  %11 = load ptr, ptr %6, align 8
  %12 = getelementptr inbounds i8, ptr %11, i64 16
  %13 = load ptr, ptr %12, align 8
  %14 = getelementptr inbounds i8, ptr %13, i64 1
  store i8 102, ptr %13, align 1
  store ptr %14, ptr %12, align 8
  call void @llvm.memcpy.p0.p0.i64(ptr noundef nonnull align 8 dereferenceable(21) %4, ptr noundef nonnull align 8 dereferenceable(21) %1, i64 21, i1 false)
  %15 = getelementptr inbounds i8, ptr %4, i64 24
  %16 = getelementptr inbounds i8, ptr %1, i64 24
  %17 = load ptr, ptr %16, align 8
  %18 = getelementptr inbounds i8, ptr %17, i64 16
  %19 = load ptr, ptr %18, align 8
  call void %19(ptr noundef nonnull align 8 dereferenceable(20) %16, ptr noundef nonnull align 8 dereferenceable(40) %15) #18
  call void @_ZN9Assembler6prefixE7Addressb(ptr noundef nonnull align 8 dereferenceable(40) %0, ptr noundef nonnull %4, i1 noundef zeroext false)
  %20 = load ptr, ptr %6, align 8
  %21 = getelementptr inbounds i8, ptr %20, i64 16
  %22 = load ptr, ptr %21, align 8
  %23 = getelementptr inbounds i8, ptr %22, i64 1
  store i8 -57, ptr %22, align 1
  store ptr %23, ptr %21, align 8
  call void @llvm.memcpy.p0.p0.i64(ptr noundef nonnull align 8 dereferenceable(21) %5, ptr noundef nonnull align 8 dereferenceable(21) %1, i64 21, i1 false)
  %24 = getelementptr inbounds i8, ptr %5, i64 24
  %25 = load ptr, ptr %16, align 8
  %26 = getelementptr inbounds i8, ptr %25, i64 16
  %27 = load ptr, ptr %26, align 8
  call void %27(ptr noundef nonnull align 8 dereferenceable(20) %16, ptr noundef nonnull align 8 dereferenceable(40) %24) #18
  %.sroa.01.0.copyload.i = load i32, ptr %5, align 8
  %28 = getelementptr inbounds i8, ptr %5, i64 4
  %.sroa.0.0.copyload.i = load i32, ptr %28, align 4
  %29 = getelementptr inbounds i8, ptr %5, i64 12
  %30 = load i32, ptr %29, align 4
  %31 = getelementptr inbounds i8, ptr %5, i64 16
  %32 = load i32, ptr %31, align 8
  %33 = sext i32 %.sroa.01.0.copyload.i to i64
  %34 = getelementptr inbounds %"class.Register::RegisterImpl", ptr getelementptr inbounds (i8, ptr @all_RegisterImpls, i64 1), i64 %33
  %35 = ptrtoint ptr %34 to i64
  %36 = trunc i64 %35 to i32
  %37 = sub i32 %36, ptrtoint (ptr getelementptr inbounds (i8, ptr @all_RegisterImpls, i64 1) to i32)
  %38 = sext i32 %.sroa.0.0.copyload.i to i64
  %39 = getelementptr inbounds %"class.Register::RegisterImpl", ptr getelementptr inbounds (i8, ptr @all_RegisterImpls, i64 1), i64 %38
  %40 = ptrtoint ptr %39 to i64
  %41 = trunc i64 %40 to i32
  %42 = sub i32 %41, ptrtoint (ptr getelementptr inbounds (i8, ptr @all_RegisterImpls, i64 1) to i32)
  call void @_ZN9Assembler19emit_operand_helperEiiiN7Address11ScaleFactorEiRK16RelocationHolderi(ptr noundef nonnull readonly align 8 dereferenceable(40) %0, i32 noundef 0, i32 noundef %37, i32 noundef %42, i32 noundef %30, i32 noundef %32, ptr noundef nonnull align 8 dereferenceable(40) %24, i32 noundef 2)
  %43 = load ptr, ptr %6, align 8
  %.0.i.i = trunc i32 %2 to i16
  %44 = getelementptr inbounds i8, ptr %43, i64 16
  %45 = load ptr, ptr %44, align 8
  store i16 %.0.i.i, ptr %45, align 1
  %46 = load ptr, ptr %44, align 8
  %47 = getelementptr inbounds i8, ptr %46, i64 2
  store ptr %47, ptr %44, align 8
  %48 = load ptr, ptr %6, align 8
  %49 = getelementptr inbounds i8, ptr %48, i64 8
  store ptr null, ptr %49, align 8
  ret void
}